target datalayout = "e-m:e-p270:32:32-p271:32:32-p272:64:64-i64:64-i128:128-f80:128-n8:16:32:64-S128"
target triple = "x86_64-pc-linux-gnu"

@.str.10 = private unnamed_addr constant [16 x i8] c"GIT_AUTHOR_NAME\00", align 1
@.str.11 = private unnamed_addr constant [17 x i8] c"GIT_AUTHOR_EMAIL\00", align 1
@.str.12 = private unnamed_addr constant [19 x i8] c"GIT_COMMITTER_NAME\00", align 1
@.str.13 = private unnamed_addr constant [20 x i8] c"GIT_COMMITTER_EMAIL\00", align 1

; Function Attrs: nounwind uwtable
define dso_local ptr @fmt_name(i32 noundef %0) #0 {
  %2 = alloca i32, align 4
  %3 = alloca ptr, align 8
  %4 = alloca ptr, align 8
  store i32 %0, ptr %2, align 4, !tbaa !4
  call void @llvm.lifetime.start.p0(i64 8, ptr %3) #10
  store ptr null, ptr %3, align 8, !tbaa !20
  call void @llvm.lifetime.start.p0(i64 8, ptr %4) #10
  store ptr null, ptr %4, align 8, !tbaa !20
  %5 = load i32, ptr %2, align 4, !tbaa !4
  switch i32 %5, label %12 [
    i32 0, label %12
    i32 1, label %6
    i32 2, label %9
  ]

6:                                                ; preds = %1
  %7 = call ptr @getenv(ptr noundef @.str.10) #10
  store ptr %7, ptr %3, align 8, !tbaa !20
  %8 = call ptr @getenv(ptr noundef @.str.11) #10
  store ptr %8, ptr %4, align 8, !tbaa !20
  br label %12

9:                                                ; preds = %1
  %10 = call ptr @getenv(ptr noundef @.str.12) #10
  store ptr %10, ptr %3, align 8, !tbaa !20
  %11 = call ptr @getenv(ptr noundef @.str.13) #10
  store ptr %11, ptr %4, align 8, !tbaa !20
  br label %12

12:                                               ; preds = %1, %9, %6, %1
  %13 = load ptr, ptr %3, align 8, !tbaa !20
  %14 = load ptr, ptr %4, align 8, !tbaa !20
  %15 = load i32, ptr %2, align 4, !tbaa !4
  %16 = call ptr @fmt_ident(ptr noundef %13, ptr noundef %14, i32 noundef %15, ptr noundef null, i32 noundef 3)
  call void @llvm.lifetime.end.p0(i64 8, ptr %4) #10
  call void @llvm.lifetime.end.p0(i64 8, ptr %3) #10
  ret ptr %16
}