; Function Attrs: nounwind uwtable
define dso_local ptr @fmt_name(i32 noundef %0) local_unnamed_addr #0 {
  switch i32 %0, label %5 [
    i32 2, label %2
    i32 1, label %.sink.split
  ]

2:                                                ; preds = %1
  br label %.sink.split

.sink.split:                                      ; preds = %1, %2
  %.str.12.sink = phi ptr [ @.str.12, %2 ], [ @.str.10, %1 ]
  %.str.13.sink = phi ptr [ @.str.13, %2 ], [ @.str.11, %1 ]
  %3 = tail call ptr @getenv(ptr noundef nonnull %.str.12.sink) #19
  %4 = tail call ptr @getenv(ptr noundef nonnull %.str.13.sink) #19
  br label %5

5:                                                ; preds = %.sink.split, %1
  %.03 = phi ptr [ null, %1 ], [ %3, %.sink.split ]
  %.0 = phi ptr [ null, %1 ], [ %4, %.sink.split ]
  %6 = tail call ptr @fmt_ident(ptr noundef %.03, ptr noundef %.0, i32 noundef %0, ptr noundef null, i32 noundef 3)
  ret ptr %6
}